target datalayout = "e-m:e-p270:32:32-p271:32:32-p272:64:64-i64:64-i128:128-f80:128-n8:16:32:64-S128"
target triple = "x86_64-pc-linux-gnu"

%struct.snode = type { i32, i32, ptr, ptr, i16, i16, [2 x ptr], ptr, i32, i8 }

@pq = internal global ptr null, align 8
@PQcnt = internal global i32 0, align 4

; Function Attrs: nounwind uwtable
define void @PQcheck() #0 {
  %1 = alloca i32, align 4
  call void @llvm.lifetime.start.p0(i64 4, ptr %1) #8
  store i32 1, ptr %1, align 4, !tbaa !3
  br label %2

2:                                                ; preds = %18, %0
  %3 = load i32, ptr %1, align 4, !tbaa !3
  %4 = load i32, ptr @PQcnt, align 4, !tbaa !3
  %5 = icmp sle i32 %3, %4
  br i1 %5, label %6, label %21

6:                                                ; preds = %2
  %7 = load ptr, ptr @pq, align 8, !tbaa !7
  %8 = load i32, ptr %1, align 4, !tbaa !3
  %9 = sext i32 %8 to i64
  %10 = getelementptr inbounds ptr, ptr %7, i64 %9
  %11 = load ptr, ptr %10, align 8, !tbaa !10
  %12 = getelementptr inbounds nuw %struct.snode, ptr %11, i32 0, i32 1
  %13 = load i32, ptr %12, align 4, !tbaa !17
  %14 = load i32, ptr %1, align 4, !tbaa !3
  %15 = icmp ne i32 %13, %14
  br i1 %15, label %16, label %17

16:                                               ; preds = %6
  br label %17

17:                                               ; preds = %16, %6
  br label %18

18:                                               ; preds = %17
  %19 = load i32, ptr %1, align 4, !tbaa !3
  %20 = add nsw i32 %19, 1
  store i32 %20, ptr %1, align 4, !tbaa !3
  br label %2, !llvm.loop !23

21:                                               ; preds = %2
  call void @llvm.lifetime.end.p0(i64 4, ptr %1) #8
  ret void
}

; Function Attrs: nounwind uwtable
define void @PQdownheap(i32 noundef %0) #0 {
  %2 = alloca i32, align 4
  %3 = alloca ptr, align 8
  %4 = alloca i32, align 4
  %5 = alloca i32, align 4
  %6 = alloca ptr, align 8
  %7 = alloca i32, align 4
  store i32 %0, ptr %2, align 4, !tbaa !3
  call void @llvm.lifetime.start.p0(i64 8, ptr %3) #8
  %8 = load ptr, ptr @pq, align 8, !tbaa !7
  %9 = load i32, ptr %2, align 4, !tbaa !3
  %10 = sext i32 %9 to i64
  %11 = getelementptr inbounds ptr, ptr %8, i64 %10
  %12 = load ptr, ptr %11, align 8, !tbaa !10
  store ptr %12, ptr %3, align 8, !tbaa !10
  call void @llvm.lifetime.start.p0(i64 4, ptr %4) #8
  %13 = load ptr, ptr %3, align 8, !tbaa !10
  %14 = getelementptr inbounds nuw %struct.snode, ptr %13, i32 0, i32 0
  %15 = load i32, ptr %14, align 8, !tbaa !25
  store i32 %15, ptr %4, align 4, !tbaa !3
  call void @llvm.lifetime.start.p0(i64 4, ptr %5) #8
  %16 = load i32, ptr @PQcnt, align 4, !tbaa !3
  %17 = sdiv i32 %16, 2
  store i32 %17, ptr %5, align 4, !tbaa !3
  call void @llvm.lifetime.start.p0(i64 8, ptr %6) #8
  call void @llvm.lifetime.start.p0(i64 4, ptr %7) #8
  br label %18

18:                                               ; preds = %63, %1
  %19 = load i32, ptr %2, align 4, !tbaa !3
  %20 = load i32, ptr %5, align 4, !tbaa !3
  %21 = icmp sle i32 %19, %20
  br i1 %21, label %22, label %73

22:                                               ; preds = %18
  %23 = load i32, ptr %2, align 4, !tbaa !3
  %24 = load i32, ptr %2, align 4, !tbaa !3
  %25 = add nsw i32 %23, %24
  store i32 %25, ptr %7, align 4, !tbaa !3
  %26 = load ptr, ptr @pq, align 8, !tbaa !7
  %27 = load i32, ptr %7, align 4, !tbaa !3
  %28 = sext i32 %27 to i64
  %29 = getelementptr inbounds ptr, ptr %26, i64 %28
  %30 = load ptr, ptr %29, align 8, !tbaa !10
  store ptr %30, ptr %6, align 8, !tbaa !10
  %31 = load i32, ptr %7, align 4, !tbaa !3
  %32 = load i32, ptr @PQcnt, align 4, !tbaa !3
  %33 = icmp slt i32 %31, %32
  br i1 %33, label %34, label %56

34:                                               ; preds = %22
  %35 = load ptr, ptr %6, align 8, !tbaa !10
  %36 = getelementptr inbounds nuw %struct.snode, ptr %35, i32 0, i32 0
  %37 = load i32, ptr %36, align 8, !tbaa !25
  %38 = load ptr, ptr @pq, align 8, !tbaa !7
  %39 = load i32, ptr %7, align 4, !tbaa !3
  %40 = add nsw i32 %39, 1
  %41 = sext i32 %40 to i64
  %42 = getelementptr inbounds ptr, ptr %38, i64 %41
  %43 = load ptr, ptr %42, align 8, !tbaa !10
  %44 = getelementptr inbounds nuw %struct.snode, ptr %43, i32 0, i32 0
  %45 = load i32, ptr %44, align 8, !tbaa !25
  %46 = icmp slt i32 %37, %45
  br i1 %46, label %47, label %55

47:                                               ; preds = %34
  %48 = load i32, ptr %7, align 4, !tbaa !3
  %49 = add nsw i32 %48, 1
  store i32 %49, ptr %7, align 4, !tbaa !3
  %50 = load ptr, ptr @pq, align 8, !tbaa !7
  %51 = load i32, ptr %7, align 4, !tbaa !3
  %52 = sext i32 %51 to i64
  %53 = getelementptr inbounds ptr, ptr %50, i64 %52
  %54 = load ptr, ptr %53, align 8, !tbaa !10
  store ptr %54, ptr %6, align 8, !tbaa !10
  br label %55

55:                                               ; preds = %47, %34
  br label %56

56:                                               ; preds = %55, %22
  %57 = load i32, ptr %4, align 4, !tbaa !3
  %58 = load ptr, ptr %6, align 8, !tbaa !10
  %59 = getelementptr inbounds nuw %struct.snode, ptr %58, i32 0, i32 0
  %60 = load i32, ptr %59, align 8, !tbaa !25
  %61 = icmp sge i32 %57, %60
  br i1 %61, label %62, label %63

62:                                               ; preds = %56
  br label %73

63:                                               ; preds = %56
  %64 = load ptr, ptr %6, align 8, !tbaa !10
  %65 = load ptr, ptr @pq, align 8, !tbaa !7
  %66 = load i32, ptr %2, align 4, !tbaa !3
  %67 = sext i32 %66 to i64
  %68 = getelementptr inbounds ptr, ptr %65, i64 %67
  store ptr %64, ptr %68, align 8, !tbaa !10
  %69 = load i32, ptr %2, align 4, !tbaa !3
  %70 = load ptr, ptr %6, align 8, !tbaa !10
  %71 = getelementptr inbounds nuw %struct.snode, ptr %70, i32 0, i32 1
  store i32 %69, ptr %71, align 4, !tbaa !17
  %72 = load i32, ptr %7, align 4, !tbaa !3
  store i32 %72, ptr %2, align 4, !tbaa !3
  br label %18, !llvm.loop !27

73:                                               ; preds = %62, %18
  %74 = load ptr, ptr %3, align 8, !tbaa !10
  %75 = load ptr, ptr @pq, align 8, !tbaa !7
  %76 = load i32, ptr %2, align 4, !tbaa !3
  %77 = sext i32 %76 to i64
  %78 = getelementptr inbounds ptr, ptr %75, i64 %77
  store ptr %74, ptr %78, align 8, !tbaa !10
  %79 = load i32, ptr %2, align 4, !tbaa !3
  %80 = load ptr, ptr %3, align 8, !tbaa !10
  %81 = getelementptr inbounds nuw %struct.snode, ptr %80, i32 0, i32 1
  store i32 %79, ptr %81, align 4, !tbaa !17
  call void @llvm.lifetime.end.p0(i64 4, ptr %7) #8
  call void @llvm.lifetime.end.p0(i64 8, ptr %6) #8
  call void @llvm.lifetime.end.p0(i64 4, ptr %5) #8
  call void @llvm.lifetime.end.p0(i64 4, ptr %4) #8
  call void @llvm.lifetime.end.p0(i64 8, ptr %3) #8
  ret void
}

; Function Attrs: nounwind uwtable
define ptr @PQremove() #0 {
  %1 = alloca ptr, align 8
  %2 = alloca ptr, align 8
  %3 = alloca i32, align 4
  call void @llvm.lifetime.start.p0(i64 8, ptr %2) #8
  %4 = load i32, ptr @PQcnt, align 4, !tbaa !3
  %5 = icmp ne i32 %4, 0
  br i1 %5, label %6, label %24

6:                                                ; preds = %0
  %7 = load ptr, ptr @pq, align 8, !tbaa !7
  %8 = getelementptr inbounds ptr, ptr %7, i64 1
  %9 = load ptr, ptr %8, align 8, !tbaa !10
  store ptr %9, ptr %2, align 8, !tbaa !10
  %10 = load ptr, ptr @pq, align 8, !tbaa !7
  %11 = load i32, ptr @PQcnt, align 4, !tbaa !3
  %12 = sext i32 %11 to i64
  %13 = getelementptr inbounds ptr, ptr %10, i64 %12
  %14 = load ptr, ptr %13, align 8, !tbaa !10
  %15 = load ptr, ptr @pq, align 8, !tbaa !7
  %16 = getelementptr inbounds ptr, ptr %15, i64 1
  store ptr %14, ptr %16, align 8, !tbaa !10
  %17 = load i32, ptr @PQcnt, align 4, !tbaa !3
  %18 = add nsw i32 %17, -1
  store i32 %18, ptr @PQcnt, align 4, !tbaa !3
  %19 = load i32, ptr @PQcnt, align 4, !tbaa !3
  %20 = icmp ne i32 %19, 0
  br i1 %20, label %21, label %22

21:                                               ; preds = %6
  call void @PQdownheap(i32 noundef 1)
  br label %22

22:                                               ; preds = %21, %6
  call void @PQcheck()
  %23 = load ptr, ptr %2, align 8, !tbaa !10
  store ptr %23, ptr %1, align 8
  store i32 1, ptr %3, align 4
  br label %25

24:                                               ; preds = %0
  store ptr null, ptr %1, align 8
  store i32 1, ptr %3, align 4
  br label %25

25:                                               ; preds = %24, %22
  call void @llvm.lifetime.end.p0(i64 8, ptr %2) #8
  %26 = load ptr, ptr %1, align 8
  ret ptr %26
}