; Function Attrs: nofree norecurse nosync nounwind memory(readwrite, inaccessiblemem: none) uwtable
define ptr @PQremove() local_unnamed_addr #5 {
  %1 = load i32, ptr @PQcnt, align 4, !tbaa !12
  %.not = icmp eq i32 %1, 0
  br i1 %.not, label %34, label %2

2:                                                ; preds = %0
  %3 = load ptr, ptr @pq, align 8, !tbaa !3
  %4 = getelementptr inbounds nuw i8, ptr %3, i64 8
  %5 = load ptr, ptr %4, align 8, !tbaa !10
  %6 = sext i32 %1 to i64
  %7 = getelementptr inbounds ptr, ptr %3, i64 %6
  %8 = load ptr, ptr %7, align 8, !tbaa !10
  store ptr %8, ptr %4, align 8, !tbaa !10
  %9 = add nsw i32 %1, -1
  store i32 %9, ptr @PQcnt, align 4, !tbaa !12
  %.not3 = icmp eq i32 %9, 0
  br i1 %.not3, label %34, label %10

10:                                               ; preds = %2
  %11 = load i32, ptr %8, align 8, !tbaa !14
  %12 = sdiv i32 %9, 2
  %.not27.i = icmp slt i32 %1, 3
  br i1 %.not27.i, label %PQdownheap.exit, label %.lr.ph.i

.lr.ph.i:                                         ; preds = %10, %28
  %.02328.i = phi i32 [ %.0.i, %28 ], [ 1, %10 ]
  %13 = shl nsw i32 %.02328.i, 1
  %14 = sext i32 %13 to i64
  %15 = getelementptr inbounds ptr, ptr %3, i64 %14
  %16 = load ptr, ptr %15, align 8, !tbaa !10
  %17 = icmp slt i32 %13, %9
  %18 = load i32, ptr %16, align 8, !tbaa !14
  br i1 %17, label %19, label %.lr.ph._crit_edge.i

19:                                               ; preds = %.lr.ph.i
  %20 = or disjoint i32 %13, 1
  %21 = sext i32 %20 to i64
  %22 = getelementptr inbounds ptr, ptr %3, i64 %21
  %23 = load ptr, ptr %22, align 8, !tbaa !10
  %24 = load i32, ptr %23, align 8, !tbaa !14
  %25 = icmp slt i32 %18, %24
  %26 = tail call i32 @llvm.smax.i32(i32 %18, i32 %24)
  %spec.select.i = select i1 %25, ptr %23, ptr %16
  %spec.select26.i = select i1 %25, i32 %20, i32 %13
  br label %.lr.ph._crit_edge.i

.lr.ph._crit_edge.i:                              ; preds = %19, %.lr.ph.i
  %27 = phi i32 [ %26, %19 ], [ %18, %.lr.ph.i ]
  %.022.i = phi ptr [ %spec.select.i, %19 ], [ %16, %.lr.ph.i ]
  %.0.i = phi i32 [ %spec.select26.i, %19 ], [ %13, %.lr.ph.i ]
  %.not25.i = icmp slt i32 %11, %27
  br i1 %.not25.i, label %28, label %._crit_edge.loopexit.i

28:                                               ; preds = %.lr.ph._crit_edge.i
  %29 = sext i32 %.02328.i to i64
  %30 = getelementptr inbounds ptr, ptr %3, i64 %29
  store ptr %.022.i, ptr %30, align 8, !tbaa !10
  %31 = getelementptr inbounds nuw i8, ptr %.022.i, i64 4
  store i32 %.02328.i, ptr %31, align 4, !tbaa !20
  %.not.i = icmp sgt i32 %.0.i, %12
  br i1 %.not.i, label %._crit_edge.loopexit.i, label %.lr.ph.i, !llvm.loop !23

._crit_edge.loopexit.i:                           ; preds = %28, %.lr.ph._crit_edge.i
  %.023.lcssa.ph.i = phi i32 [ %.0.i, %28 ], [ %.02328.i, %.lr.ph._crit_edge.i ]
  %.pre31.i = sext i32 %.023.lcssa.ph.i to i64
  br label %PQdownheap.exit

PQdownheap.exit:                                  ; preds = %10, %._crit_edge.loopexit.i
  %.pre-phi.i = phi i64 [ %.pre31.i, %._crit_edge.loopexit.i ], [ 1, %10 ]
  %.023.lcssa.i = phi i32 [ %.023.lcssa.ph.i, %._crit_edge.loopexit.i ], [ 1, %10 ]
  %32 = getelementptr inbounds ptr, ptr %3, i64 %.pre-phi.i
  store ptr %8, ptr %32, align 8, !tbaa !10
  %33 = getelementptr inbounds nuw i8, ptr %8, i64 4
  store i32 %.023.lcssa.i, ptr %33, align 4, !tbaa !20
  br label %34

34:                                               ; preds = %2, %PQdownheap.exit, %0
  %.0 = phi ptr [ null, %0 ], [ %5, %PQdownheap.exit ], [ %5, %2 ]
  ret ptr %.0
}